; Function Attrs: nounwind uwtable
define internal void @_WriteExtraToc(ptr noundef %0, ptr noundef readonly captures(none) %1) #0 {
  %3 = getelementptr inbounds nuw i8, ptr %1, i64 152
  %4 = load ptr, ptr %3, align 8
  %5 = getelementptr inbounds nuw i8, ptr %4, i64 8
  %6 = load ptr, ptr %5, align 8
  %.not = icmp eq ptr %6, null
  %.str. = select i1 %.not, ptr @.str, ptr %6
  %7 = tail call i64 @WriteStr(ptr noundef %0, ptr noundef nonnull %.str.) #17
  ret void
}